target datalayout = "e-m:e-p270:32:32-p271:32:32-p272:64:64-i64:64-i128:128-f80:128-n8:16:32:64-S128"
target triple = "x86_64-pc-linux-gnu"

@__const.Abc_GetSecond.pFuncStrs = private unnamed_addr constant [7 x ptr] [ptr @.str.56, ptr @.str.57, ptr @.str.58, ptr @.str.59, ptr @.str.60, ptr @.str.61, ptr @.str.62], align 16

; Function Attrs: nounwind uwtable
define void @Abc_GetSecond(ptr noundef %0, ptr noundef %1, ptr noundef %2, ptr noundef %3, ptr noundef %4, ptr noundef %5) #0 {
  %7 = alloca ptr, align 8
  %8 = alloca ptr, align 8
  %9 = alloca ptr, align 8
  %10 = alloca ptr, align 8
  %11 = alloca ptr, align 8
  %12 = alloca ptr, align 8
  %13 = alloca i32, align 4
  %14 = alloca i32, align 4
  %15 = alloca i32, align 4
  %16 = alloca [32 x ptr], align 16
  %17 = alloca [7 x ptr], align 16
  %18 = alloca i32, align 4
  %19 = alloca i32, align 4
  store ptr %0, ptr %7, align 8, !tbaa !3
  store ptr %1, ptr %8, align 8, !tbaa !3
  store ptr %2, ptr %9, align 8, !tbaa !3
  store ptr %3, ptr %10, align 8, !tbaa !3
  store ptr %4, ptr %11, align 8, !tbaa !3
  store ptr %5, ptr %12, align 8, !tbaa !3
  call void @llvm.lifetime.start.p0(i64 4, ptr %13) #12
  store i32 10, ptr %13, align 4, !tbaa !8
  call void @llvm.lifetime.start.p0(i64 4, ptr %14) #12
  store i32 32, ptr %14, align 4, !tbaa !8
  call void @llvm.lifetime.start.p0(i64 4, ptr %15) #12
  store i32 7, ptr %15, align 4, !tbaa !8
  call void @llvm.lifetime.start.p0(i64 256, ptr %16) #12
  call void @llvm.memcpy.p0.p0.i64(ptr align 16 %16, ptr align 16 @__const.Abc_GetSecond.pMintStrs, i64 256, i1 false)
  call void @llvm.lifetime.start.p0(i64 56, ptr %17) #12
  call void @llvm.memcpy.p0.p0.i64(ptr align 16 %17, ptr align 16 @__const.Abc_GetSecond.pFuncStrs, i64 56, i1 false)
  call void @llvm.lifetime.start.p0(i64 4, ptr %18) #12
  call void @llvm.lifetime.start.p0(i64 4, ptr %19) #12
  %20 = load i32, ptr %13, align 4, !tbaa !8
  %21 = load ptr, ptr %7, align 8, !tbaa !3
  store i32 %20, ptr %21, align 4, !tbaa !8
  %22 = load i32, ptr %14, align 4, !tbaa !8
  %23 = load ptr, ptr %8, align 8, !tbaa !3
  store i32 %22, ptr %23, align 4, !tbaa !8
  %24 = load i32, ptr %15, align 4, !tbaa !8
  %25 = load ptr, ptr %9, align 8, !tbaa !3
  store i32 %24, ptr %25, align 4, !tbaa !8
  store i32 0, ptr %18, align 4, !tbaa !8
  br label %26

26:                                               ; preds = %68, %6
  %27 = load i32, ptr %18, align 4, !tbaa !8
  %28 = load i32, ptr %14, align 4, !tbaa !8
  %29 = icmp slt i32 %27, %28
  br i1 %29, label %30, label %71

30:                                               ; preds = %26
  store i32 0, ptr %19, align 4, !tbaa !8
  br label %31

31:                                               ; preds = %64, %30
  %32 = load i32, ptr %19, align 4, !tbaa !8
  %33 = load i32, ptr %13, align 4, !tbaa !8
  %34 = icmp slt i32 %32, %33
  br i1 %34, label %35, label %67

35:                                               ; preds = %31
  %36 = load i32, ptr %18, align 4, !tbaa !8
  %37 = sext i32 %36 to i64
  %38 = getelementptr inbounds [32 x ptr], ptr %16, i64 0, i64 %37
  %39 = load ptr, ptr %38, align 8, !tbaa !10
  %40 = load i32, ptr %19, align 4, !tbaa !8
  %41 = sext i32 %40 to i64
  %42 = getelementptr inbounds i8, ptr %39, i64 %41
  %43 = load i8, ptr %42, align 1, !tbaa !12
  %44 = sext i8 %43 to i32
  %45 = icmp eq i32 %44, 49
  br i1 %45, label %46, label %63

46:                                               ; preds = %35
  %47 = load i32, ptr %19, align 4, !tbaa !8
  %48 = shl i32 1, %47
  %49 = load ptr, ptr %11, align 8, !tbaa !3
  %50 = load i32, ptr %18, align 4, !tbaa !8
  %51 = sext i32 %50 to i64
  %52 = getelementptr inbounds i32, ptr %49, i64 %51
  %53 = load i32, ptr %52, align 4, !tbaa !8
  %54 = or i32 %53, %48
  store i32 %54, ptr %52, align 4, !tbaa !8
  %55 = load i32, ptr %18, align 4, !tbaa !8
  %56 = shl i32 1, %55
  %57 = load ptr, ptr %10, align 8, !tbaa !3
  %58 = load i32, ptr %19, align 4, !tbaa !8
  %59 = sext i32 %58 to i64
  %60 = getelementptr inbounds i32, ptr %57, i64 %59
  %61 = load i32, ptr %60, align 4, !tbaa !8
  %62 = or i32 %61, %56
  store i32 %62, ptr %60, align 4, !tbaa !8
  br label %63

63:                                               ; preds = %46, %35
  br label %64

64:                                               ; preds = %63
  %65 = load i32, ptr %19, align 4, !tbaa !8
  %66 = add nsw i32 %65, 1
  store i32 %66, ptr %19, align 4, !tbaa !8
  br label %31, !llvm.loop !18

67:                                               ; preds = %31
  br label %68

68:                                               ; preds = %67
  %69 = load i32, ptr %18, align 4, !tbaa !8
  %70 = add nsw i32 %69, 1
  store i32 %70, ptr %18, align 4, !tbaa !8
  br label %26, !llvm.loop !19

71:                                               ; preds = %26
  store i32 0, ptr %18, align 4, !tbaa !8
  br label %72

72:                                               ; preds = %106, %71
  %73 = load i32, ptr %18, align 4, !tbaa !8
  %74 = load i32, ptr %15, align 4, !tbaa !8
  %75 = icmp slt i32 %73, %74
  br i1 %75, label %76, label %109

76:                                               ; preds = %72
  store i32 0, ptr %19, align 4, !tbaa !8
  br label %77

77:                                               ; preds = %102, %76
  %78 = load i32, ptr %19, align 4, !tbaa !8
  %79 = load i32, ptr %14, align 4, !tbaa !8
  %80 = icmp slt i32 %78, %79
  br i1 %80, label %81, label %105

81:                                               ; preds = %77
  %82 = load i32, ptr %18, align 4, !tbaa !8
  %83 = sext i32 %82 to i64
  %84 = getelementptr inbounds [7 x ptr], ptr %17, i64 0, i64 %83
  %85 = load ptr, ptr %84, align 8, !tbaa !10
  %86 = load i32, ptr %19, align 4, !tbaa !8
  %87 = sext i32 %86 to i64
  %88 = getelementptr inbounds i8, ptr %85, i64 %87
  %89 = load i8, ptr %88, align 1, !tbaa !12
  %90 = sext i8 %89 to i32
  %91 = icmp eq i32 %90, 49
  br i1 %91, label %92, label %101

92:                                               ; preds = %81
  %93 = load i32, ptr %19, align 4, !tbaa !8
  %94 = shl i32 1, %93
  %95 = load ptr, ptr %12, align 8, !tbaa !3
  %96 = load i32, ptr %18, align 4, !tbaa !8
  %97 = sext i32 %96 to i64
  %98 = getelementptr inbounds i32, ptr %95, i64 %97
  %99 = load i32, ptr %98, align 4, !tbaa !8
  %100 = or i32 %99, %94
  store i32 %100, ptr %98, align 4, !tbaa !8
  br label %101

101:                                              ; preds = %92, %81
  br label %102

102:                                              ; preds = %101
  %103 = load i32, ptr %19, align 4, !tbaa !8
  %104 = add nsw i32 %103, 1
  store i32 %104, ptr %19, align 4, !tbaa !8
  br label %77, !llvm.loop !20

105:                                              ; preds = %77
  br label %106

106:                                              ; preds = %105
  %107 = load i32, ptr %18, align 4, !tbaa !8
  %108 = add nsw i32 %107, 1
  store i32 %108, ptr %18, align 4, !tbaa !8
  br label %72, !llvm.loop !21

109:                                              ; preds = %72
  call void @llvm.lifetime.end.p0(i64 4, ptr %19) #12
  call void @llvm.lifetime.end.p0(i64 4, ptr %18) #12
  call void @llvm.lifetime.end.p0(i64 56, ptr %17) #12
  call void @llvm.lifetime.end.p0(i64 256, ptr %16) #12
  call void @llvm.lifetime.end.p0(i64 4, ptr %15) #12
  call void @llvm.lifetime.end.p0(i64 4, ptr %14) #12
  call void @llvm.lifetime.end.p0(i64 4, ptr %13) #12
  ret void
}