; Function Attrs: nofree norecurse nosync nounwind memory(read, argmem: readwrite, inaccessiblemem: none) uwtable
define void @Abc_GetSecond(ptr noundef writeonly captures(none) initializes((0, 4)) %0, ptr noundef writeonly captures(none) initializes((0, 4)) %1, ptr noundef writeonly captures(none) initializes((0, 4)) %2, ptr noundef captures(none) %3, ptr noundef captures(none) %4, ptr noundef captures(none) %5) local_unnamed_addr #0 {
  store i32 10, ptr %0, align 4, !tbaa !3
  store i32 32, ptr %1, align 4, !tbaa !3
  store i32 7, ptr %2, align 4, !tbaa !3
  br label %.preheader33

.preheader33:                                     ; preds = %6, %25
  %indvars.iv39 = phi i64 [ 0, %6 ], [ %indvars.iv.next40, %25 ]
  %7 = getelementptr inbounds nuw [32 x ptr], ptr @__const.Abc_GetSecond.pMintStrs, i64 0, i64 %indvars.iv39
  %8 = load ptr, ptr %7, align 8, !tbaa !7
  %9 = getelementptr inbounds nuw i32, ptr %4, i64 %indvars.iv39
  %10 = trunc nuw nsw i64 %indvars.iv39 to i32
  %11 = shl nuw i32 1, %10
  br label %12

12:                                               ; preds = %.preheader33, %24
  %indvars.iv = phi i64 [ 0, %.preheader33 ], [ %indvars.iv.next, %24 ]
  %13 = getelementptr inbounds nuw i8, ptr %8, i64 %indvars.iv
  %14 = load i8, ptr %13, align 1, !tbaa !10
  %15 = icmp eq i8 %14, 49
  br i1 %15, label %16, label %24

16:                                               ; preds = %12
  %17 = trunc nuw nsw i64 %indvars.iv to i32
  %18 = shl nuw nsw i32 1, %17
  %19 = load i32, ptr %9, align 4, !tbaa !3
  %20 = or i32 %19, %18
  store i32 %20, ptr %9, align 4, !tbaa !3
  %21 = getelementptr inbounds nuw i32, ptr %3, i64 %indvars.iv
  %22 = load i32, ptr %21, align 4, !tbaa !3
  %23 = or i32 %22, %11
  store i32 %23, ptr %21, align 4, !tbaa !3
  br label %24

24:                                               ; preds = %12, %16
  %indvars.iv.next = add nuw nsw i64 %indvars.iv, 1
  %exitcond.not = icmp eq i64 %indvars.iv.next, 10
  br i1 %exitcond.not, label %25, label %12, !llvm.loop !16

25:                                               ; preds = %24
  %indvars.iv.next40 = add nuw nsw i64 %indvars.iv39, 1
  %exitcond42.not = icmp eq i64 %indvars.iv.next40, 32
  br i1 %exitcond42.not, label %.preheader, label %.preheader33, !llvm.loop !17

.preheader:                                       ; preds = %25, %39
  %indvars.iv47 = phi i64 [ %indvars.iv.next48, %39 ], [ 0, %25 ]
  %26 = getelementptr inbounds nuw [7 x ptr], ptr @__const.Abc_GetSecond.pFuncStrs, i64 0, i64 %indvars.iv47
  %27 = load ptr, ptr %26, align 8, !tbaa !7
  %28 = getelementptr inbounds nuw i32, ptr %5, i64 %indvars.iv47
  br label %29

29:                                               ; preds = %.preheader, %38
  %indvars.iv43 = phi i64 [ 0, %.preheader ], [ %indvars.iv.next44, %38 ]
  %30 = getelementptr inbounds nuw i8, ptr %27, i64 %indvars.iv43
  %31 = load i8, ptr %30, align 1, !tbaa !10
  %32 = icmp eq i8 %31, 49
  br i1 %32, label %33, label %38

33:                                               ; preds = %29
  %34 = trunc nuw nsw i64 %indvars.iv43 to i32
  %35 = shl nuw i32 1, %34
  %36 = load i32, ptr %28, align 4, !tbaa !3
  %37 = or i32 %36, %35
  store i32 %37, ptr %28, align 4, !tbaa !3
  br label %38

38:                                               ; preds = %29, %33
  %indvars.iv.next44 = add nuw nsw i64 %indvars.iv43, 1
  %exitcond46.not = icmp eq i64 %indvars.iv.next44, 32
  br i1 %exitcond46.not, label %39, label %29, !llvm.loop !18

39:                                               ; preds = %38
  %indvars.iv.next48 = add nuw nsw i64 %indvars.iv47, 1
  %exitcond50.not = icmp eq i64 %indvars.iv.next48, 7
  br i1 %exitcond50.not, label %40, label %.preheader, !llvm.loop !19

40:                                               ; preds = %39
  ret void
}